target datalayout = "e-m:e-p270:32:32-p271:32:32-p272:64:64-i64:64-i128:128-f80:128-n8:16:32:64-S128"
target triple = "x86_64-pc-linux-gnu"

%"struct.OpenSubdiv::v3_6_0::Osd::BufferDescriptor" = type { i32, i32, i32 }

; Function Attrs: mustprogress uwtable
define noundef zeroext i1 @_ZN10OpenSubdiv6v3_6_03Osd12OmpEvaluator12EvalStencilsEPKfRKNS1_16BufferDescriptorEPfS7_PKiSA_SA_S4_ii(ptr noundef %0, ptr noundef nonnull align 4 dereferenceable(12) %1, ptr noundef %2, ptr noundef nonnull align 4 dereferenceable(12) %3, ptr noundef %4, ptr noundef %5, ptr noundef %6, ptr noundef %7, i32 noundef %8, i32 noundef %9) #4 align 2 {
  %11 = alloca i1, align 1
  %12 = alloca ptr, align 8
  %13 = alloca ptr, align 8
  %14 = alloca ptr, align 8
  %15 = alloca ptr, align 8
  %16 = alloca ptr, align 8
  %17 = alloca ptr, align 8
  %18 = alloca ptr, align 8
  %19 = alloca ptr, align 8
  %20 = alloca i32, align 4
  %21 = alloca i32, align 4
  store ptr %0, ptr %12, align 8
  store ptr %1, ptr %13, align 8
  store ptr %2, ptr %14, align 8
  store ptr %3, ptr %15, align 8
  store ptr %4, ptr %16, align 8
  store ptr %5, ptr %17, align 8
  store ptr %6, ptr %18, align 8
  store ptr %7, ptr %19, align 8
  store i32 %8, ptr %20, align 4
  store i32 %9, ptr %21, align 4
  %22 = load i32, ptr %21, align 4
  %23 = load i32, ptr %20, align 4
  %24 = icmp sle i32 %22, %23
  br i1 %24, label %25, label %26

25:                                               ; preds = %10
  store i1 true, ptr %11, align 1
  br label %46

26:                                               ; preds = %10
  %27 = load ptr, ptr %13, align 8
  %28 = getelementptr inbounds nuw %"struct.OpenSubdiv::v3_6_0::Osd::BufferDescriptor", ptr %27, i32 0, i32 1
  %29 = load i32, ptr %28, align 4
  %30 = load ptr, ptr %15, align 8
  %31 = getelementptr inbounds nuw %"struct.OpenSubdiv::v3_6_0::Osd::BufferDescriptor", ptr %30, i32 0, i32 1
  %32 = load i32, ptr %31, align 4
  %33 = icmp ne i32 %29, %32
  br i1 %33, label %34, label %35

34:                                               ; preds = %26
  store i1 false, ptr %11, align 1
  br label %46

35:                                               ; preds = %26
  %36 = load ptr, ptr %12, align 8
  %37 = load ptr, ptr %13, align 8
  %38 = load ptr, ptr %14, align 8
  %39 = load ptr, ptr %15, align 8
  %40 = load ptr, ptr %16, align 8
  %41 = load ptr, ptr %17, align 8
  %42 = load ptr, ptr %18, align 8
  %43 = load ptr, ptr %19, align 8
  %44 = load i32, ptr %20, align 4
  %45 = load i32, ptr %21, align 4
  call void @_ZN10OpenSubdiv6v3_6_03Osd15OmpEvalStencilsEPKfRKNS1_16BufferDescriptorEPfS6_PKiS9_S9_S3_ii(ptr noundef %36, ptr noundef nonnull align 4 dereferenceable(12) %37, ptr noundef %38, ptr noundef nonnull align 4 dereferenceable(12) %39, ptr noundef %40, ptr noundef %41, ptr noundef %42, ptr noundef %43, i32 noundef %44, i32 noundef %45)
  store i1 true, ptr %11, align 1
  br label %46

46:                                               ; preds = %35, %34, %25
  %47 = load i1, ptr %11, align 1
  ret i1 %47
}